; Function Attrs: nounwind uwtable
define ptr @l_ReaderT_instAlternativeOfMonad___rarg___lambda__1___boxed(ptr noundef %0, ptr readnone captures(none) %1, ptr noundef %2) #0 {
  %4 = getelementptr inbounds nuw i8, ptr %0, i64 16
  %5 = load ptr, ptr %4, align 8, !tbaa !10
  %6 = ptrtoint ptr %5 to i64
  %7 = and i64 %6, 1
  %.not.i5 = icmp eq i64 %7, 0
  br i1 %.not.i5, label %8, label %lean_inc.exit.i

8:                                                ; preds = %3
  %.val.i.i = load i32, ptr %5, align 4, !tbaa !4
  %9 = icmp sgt i32 %.val.i.i, 0
  br i1 %9, label %10, label %12, !prof !9

10:                                               ; preds = %8
  %11 = add nuw i32 %.val.i.i, 1
  store i32 %11, ptr %5, align 4, !tbaa !4
  br label %lean_inc.exit.i

12:                                               ; preds = %8
  %.not.i5.i = icmp eq i32 %.val.i.i, 0
  br i1 %.not.i5.i, label %lean_inc.exit.i, label %13

13:                                               ; preds = %12
  tail call void @lean_inc_ref_cold(ptr noundef nonnull %5) #4
  br label %lean_inc.exit.i

lean_inc.exit.i:                                  ; preds = %13, %12, %10, %3
  %14 = ptrtoint ptr %0 to i64
  %15 = and i64 %14, 1
  %.not6.i = icmp eq i64 %15, 0
  br i1 %.not6.i, label %16, label %l_ReaderT_instAlternativeOfMonad___rarg___lambda__1.exit

16:                                               ; preds = %lean_inc.exit.i
  %17 = load i32, ptr %0, align 4, !tbaa !4
  %18 = icmp sgt i32 %17, 1
  br i1 %18, label %19, label %21, !prof !9

19:                                               ; preds = %16
  %20 = add nsw i32 %17, -1
  store i32 %20, ptr %0, align 4, !tbaa !4
  br label %l_ReaderT_instAlternativeOfMonad___rarg___lambda__1.exit

21:                                               ; preds = %16
  %.not.i.i = icmp eq i32 %17, 0
  br i1 %.not.i.i, label %l_ReaderT_instAlternativeOfMonad___rarg___lambda__1.exit, label %22

22:                                               ; preds = %21
  tail call void @lean_dec_ref_cold(ptr noundef nonnull %0) #4
  br label %l_ReaderT_instAlternativeOfMonad___rarg___lambda__1.exit

l_ReaderT_instAlternativeOfMonad___rarg___lambda__1.exit: ; preds = %lean_inc.exit.i, %19, %21, %22
  %23 = tail call ptr @lean_apply_1(ptr noundef %5, ptr noundef nonnull inttoptr (i64 1 to ptr)) #4
  %24 = ptrtoint ptr %2 to i64
  %25 = and i64 %24, 1
  %.not = icmp eq i64 %25, 0
  br i1 %.not, label %26, label %lean_dec.exit

26:                                               ; preds = %l_ReaderT_instAlternativeOfMonad___rarg___lambda__1.exit
  %27 = load i32, ptr %2, align 4, !tbaa !4
  %28 = icmp sgt i32 %27, 1
  br i1 %28, label %29, label %31, !prof !9

29:                                               ; preds = %26
  %30 = add nsw i32 %27, -1
  store i32 %30, ptr %2, align 4, !tbaa !4
  br label %lean_dec.exit

31:                                               ; preds = %26
  %.not.i = icmp eq i32 %27, 0
  br i1 %.not.i, label %lean_dec.exit, label %32

32:                                               ; preds = %31
  tail call void @lean_dec_ref_cold(ptr noundef nonnull %2) #4
  br label %lean_dec.exit

lean_dec.exit:                                    ; preds = %32, %31, %29, %l_ReaderT_instAlternativeOfMonad___rarg___lambda__1.exit
  ret ptr %23
}